; Function Attrs: mustprogress nofree norecurse nounwind willreturn memory(readwrite, inaccessiblemem: none) uwtable
define noundef zeroext i1 @_ZN7rocksdb13InternalStats31HandleCurrentSuperVersionNumberEPmPNS_6DBImplEPNS_7VersionE(ptr nocapture noundef nonnull readonly align 8 dereferenceable(1944) %this, ptr nocapture noundef writeonly %value, ptr nocapture readnone %0, ptr nocapture readnone %1) #7 align 2 {
entry:
  %cfd_ = getelementptr inbounds i8, ptr %this, i64 1928
  %2 = load ptr, ptr %cfd_, align 8
  %super_version_number_.i = getelementptr inbounds i8, ptr %2, i64 2464
  %3 = load atomic i64, ptr %super_version_number_.i seq_cst, align 8
  store i64 %3, ptr %value, align 8
  ret i1 true
}